target datalayout = "e-m:e-p270:32:32-p271:32:32-p272:64:64-i64:64-i128:128-f80:128-n8:16:32:64-S128"
target triple = "x86_64-pc-linux-gnu"

%struct.SlruCtlData = type { ptr, i16, i8, i32, ptr, [64 x i8] }
%union.LWLockPadded = type { %struct.LWLock, [112 x i8] }
%struct.LWLock = type { i16, %struct.pg_atomic_uint32, %struct.proclist_head }
%struct.pg_atomic_uint32 = type { i32 }
%struct.proclist_head = type { i32, i32 }
%struct.SerialControlData = type { i64, i32, i32 }

@MainLWLockArray = external global ptr, align 8
@serialControl = internal global ptr null, align 8
@SerialSlruCtlData = internal global %struct.SlruCtlData zeroinitializer, align 8

; Function Attrs: nounwind uwtable
define internal zeroext i1 @SerialPagePrecedesLogically(i64 noundef %0, i64 noundef %1) #0 {
  %3 = alloca i64, align 8
  %4 = alloca i64, align 8
  %5 = alloca i32, align 4
  %6 = alloca i32, align 4
  store i64 %0, ptr %3, align 8
  store i64 %1, ptr %4, align 8
  call void @llvm.lifetime.start.p0(i64 4, ptr %5) #10
  call void @llvm.lifetime.start.p0(i64 4, ptr %6) #10
  %7 = load i64, ptr %3, align 8
  %8 = trunc i64 %7 to i32
  %9 = zext i32 %8 to i64
  %10 = mul i64 %9, 1024
  %11 = trunc i64 %10 to i32
  store i32 %11, ptr %5, align 4
  %12 = load i32, ptr %5, align 4
  %13 = add i32 %12, 4
  store i32 %13, ptr %5, align 4
  %14 = load i64, ptr %4, align 8
  %15 = trunc i64 %14 to i32
  %16 = zext i32 %15 to i64
  %17 = mul i64 %16, 1024
  %18 = trunc i64 %17 to i32
  store i32 %18, ptr %6, align 4
  %19 = load i32, ptr %6, align 4
  %20 = add i32 %19, 4
  store i32 %20, ptr %6, align 4
  %21 = load i32, ptr %5, align 4
  %22 = load i32, ptr %6, align 4
  %23 = call zeroext i1 @TransactionIdPrecedes(i32 noundef %21, i32 noundef %22)
  br i1 %23, label %24, label %32

24:                                               ; preds = %2
  %25 = load i32, ptr %5, align 4
  %26 = load i32, ptr %6, align 4
  %27 = zext i32 %26 to i64
  %28 = add i64 %27, 1024
  %29 = sub i64 %28, 1
  %30 = trunc i64 %29 to i32
  %31 = call zeroext i1 @TransactionIdPrecedes(i32 noundef %25, i32 noundef %30)
  br label %32

32:                                               ; preds = %24, %2
  %33 = phi i1 [ false, %2 ], [ %31, %24 ]
  call void @llvm.lifetime.end.p0(i64 4, ptr %6) #10
  call void @llvm.lifetime.end.p0(i64 4, ptr %5) #10
  ret i1 %33
}

; Function Attrs: nounwind uwtable
define dso_local void @CheckPointPredicate() #0 {
  %1 = alloca i64, align 8
  %2 = alloca i32, align 4
  %3 = alloca i64, align 8
  call void @llvm.lifetime.start.p0(i64 8, ptr %1) #10
  %4 = load ptr, ptr @MainLWLockArray, align 8
  %5 = getelementptr inbounds %union.LWLockPadded, ptr %4, i64 52
  %6 = call zeroext i1 @LWLockAcquire(ptr noundef %5, i32 noundef 0)
  %7 = load ptr, ptr @serialControl, align 8
  %8 = getelementptr inbounds nuw %struct.SerialControlData, ptr %7, i32 0, i32 0
  %9 = load i64, ptr %8, align 8
  %10 = icmp slt i64 %9, 0
  br i1 %10, label %11, label %14

11:                                               ; preds = %0
  %12 = load ptr, ptr @MainLWLockArray, align 8
  %13 = getelementptr inbounds %union.LWLockPadded, ptr %12, i64 52
  call void @LWLockRelease(ptr noundef %13)
  store i32 1, ptr %2, align 4
  br label %47

14:                                               ; preds = %0
  %15 = load ptr, ptr @serialControl, align 8
  %16 = getelementptr inbounds nuw %struct.SerialControlData, ptr %15, i32 0, i32 2
  %17 = load i32, ptr %16, align 4
  %18 = icmp ne i32 %17, 0
  br i1 %18, label %19, label %37

19:                                               ; preds = %14
  call void @llvm.lifetime.start.p0(i64 8, ptr %3) #10
  %20 = load ptr, ptr @serialControl, align 8
  %21 = getelementptr inbounds nuw %struct.SerialControlData, ptr %20, i32 0, i32 2
  %22 = load i32, ptr %21, align 4
  %23 = zext i32 %22 to i64
  %24 = udiv i64 %23, 1024
  store i64 %24, ptr %3, align 8
  %25 = load i64, ptr %3, align 8
  %26 = load ptr, ptr @serialControl, align 8
  %27 = getelementptr inbounds nuw %struct.SerialControlData, ptr %26, i32 0, i32 0
  %28 = load i64, ptr %27, align 8
  %29 = call zeroext i1 @SerialPagePrecedesLogically(i64 noundef %25, i64 noundef %28)
  br i1 %29, label %30, label %32

30:                                               ; preds = %19
  %31 = load i64, ptr %3, align 8
  store i64 %31, ptr %1, align 8
  br label %36

32:                                               ; preds = %19
  %33 = load ptr, ptr @serialControl, align 8
  %34 = getelementptr inbounds nuw %struct.SerialControlData, ptr %33, i32 0, i32 0
  %35 = load i64, ptr %34, align 8
  store i64 %35, ptr %1, align 8
  br label %36

36:                                               ; preds = %32, %30
  call void @llvm.lifetime.end.p0(i64 8, ptr %3) #10
  br label %43

37:                                               ; preds = %14
  %38 = load ptr, ptr @serialControl, align 8
  %39 = getelementptr inbounds nuw %struct.SerialControlData, ptr %38, i32 0, i32 0
  %40 = load i64, ptr %39, align 8
  store i64 %40, ptr %1, align 8
  %41 = load ptr, ptr @serialControl, align 8
  %42 = getelementptr inbounds nuw %struct.SerialControlData, ptr %41, i32 0, i32 0
  store i64 -1, ptr %42, align 8
  br label %43

43:                                               ; preds = %37, %36
  %44 = load ptr, ptr @MainLWLockArray, align 8
  %45 = getelementptr inbounds %union.LWLockPadded, ptr %44, i64 52
  call void @LWLockRelease(ptr noundef %45)
  %46 = load i64, ptr %1, align 8
  call void @SimpleLruTruncate(ptr noundef @SerialSlruCtlData, i64 noundef %46)
  call void @SimpleLruWriteAll(ptr noundef @SerialSlruCtlData, i1 noundef zeroext true)
  store i32 0, ptr %2, align 4
  br label %47

47:                                               ; preds = %43, %11
  call void @llvm.lifetime.end.p0(i64 8, ptr %1) #10
  %48 = load i32, ptr %2, align 4
  switch i32 %48, label %50 [
    i32 0, label %49
    i32 1, label %49
  ]

49:                                               ; preds = %47, %47
  ret void

50:                                               ; preds = %47
  unreachable
}