; Function Attrs: nounwind uwtable
define dso_local void @CheckPointPredicate() local_unnamed_addr #0 {
  %1 = load ptr, ptr @MainLWLockArray, align 8
  %2 = getelementptr inbounds nuw i8, ptr %1, i64 6656
  %3 = tail call zeroext i1 @LWLockAcquire(ptr noundef nonnull %2, i32 noundef 0) #12
  %4 = load ptr, ptr @serialControl, align 8
  %5 = load i64, ptr %4, align 8
  %6 = icmp slt i64 %5, 0
  br i1 %6, label %7, label %10

7:                                                ; preds = %0
  %8 = load ptr, ptr @MainLWLockArray, align 8
  %9 = getelementptr inbounds nuw i8, ptr %8, i64 6656
  tail call void @LWLockRelease(ptr noundef nonnull %9) #12
  br label %29

10:                                               ; preds = %0
  %11 = getelementptr inbounds nuw i8, ptr %4, i64 12
  %12 = load i32, ptr %11, align 4
  %.not = icmp eq i32 %12, 0
  br i1 %.not, label %25, label %13

13:                                               ; preds = %10
  %14 = and i32 %12, -1024
  %15 = or disjoint i32 %14, 4
  %.tr8.i = trunc i64 %5 to i32
  %16 = shl i32 %.tr8.i, 10
  %17 = or disjoint i32 %16, 4
  %18 = tail call zeroext i1 @TransactionIdPrecedes(i32 noundef %15, i32 noundef %17) #12
  br i1 %18, label %SerialPagePrecedesLogically.exit, label %SerialPagePrecedesLogically.exit.thread

SerialPagePrecedesLogically.exit:                 ; preds = %13
  %19 = lshr i32 %12, 10
  %20 = zext nneg i32 %19 to i64
  %21 = add i32 %16, 1027
  %22 = tail call zeroext i1 @TransactionIdPrecedes(i32 noundef %15, i32 noundef %21) #12
  br i1 %22, label %26, label %SerialPagePrecedesLogically.exit.thread

SerialPagePrecedesLogically.exit.thread:          ; preds = %13, %SerialPagePrecedesLogically.exit
  %23 = load ptr, ptr @serialControl, align 8
  %24 = load i64, ptr %23, align 8
  br label %26

25:                                               ; preds = %10
  store i64 -1, ptr %4, align 8
  br label %26

26:                                               ; preds = %SerialPagePrecedesLogically.exit.thread, %SerialPagePrecedesLogically.exit, %25
  %.1 = phi i64 [ %5, %25 ], [ %24, %SerialPagePrecedesLogically.exit.thread ], [ %20, %SerialPagePrecedesLogically.exit ]
  %27 = load ptr, ptr @MainLWLockArray, align 8
  %28 = getelementptr inbounds nuw i8, ptr %27, i64 6656
  tail call void @LWLockRelease(ptr noundef nonnull %28) #12
  tail call void @SimpleLruTruncate(ptr noundef nonnull @SerialSlruCtlData, i64 noundef %.1) #12
  tail call void @SimpleLruWriteAll(ptr noundef nonnull @SerialSlruCtlData, i1 noundef zeroext true) #12
  br label %29

29:                                               ; preds = %26, %7
  ret void
}